; Function Attrs: mustprogress nounwind uwtable
define hidden void @_ZN12divF_immNode13eval_constantEP7Compile(ptr noundef nonnull align 8 dereferenceable(128) %0, ptr nocapture noundef readonly %1) unnamed_addr #3 align 2 {
  %3 = alloca %"class.ConstantTable::Constant", align 8
  %4 = getelementptr inbounds i8, ptr %1, i64 2288
  %5 = load ptr, ptr %4, align 8
  %6 = getelementptr inbounds i8, ptr %5, i64 632
  %7 = getelementptr inbounds i8, ptr %0, i64 120
  %8 = load ptr, ptr %7, align 8
  call void @_ZN13ConstantTable3addEP16MachConstantNodeP8MachOper(ptr dead_on_unwind nonnull writable sret(%"class.ConstantTable::Constant") align 8 %3, ptr noundef nonnull align 8 dereferenceable(36) %6, ptr noundef nonnull %0, ptr noundef %8) #23
  %9 = getelementptr inbounds i8, ptr %0, i64 72
  call void @llvm.memcpy.p0.p0.i64(ptr noundef nonnull align 8 dereferenceable(25) %9, ptr noundef nonnull align 8 dereferenceable(25) %3, i64 25, i1 false)
  ret void
}